target datalayout = "e-m:e-p270:32:32-p271:32:32-p272:64:64-i64:64-i128:128-f80:128-n8:16:32:64-S128"
target triple = "x86_64-pc-linux-gnu"

%struct._zval_struct = type { %union._zend_value, %union.anon, %union.anon.3 }
%union._zend_value = type { i64 }
%union.anon = type { i32 }
%union.anon.3 = type { i32 }
%struct._zend_refcounted_h = type { i32, %union.anon.4 }
%union.anon.4 = type { i32 }
%struct._zend_refcounted = type { %struct._zend_refcounted_h }
%struct._zend_string = type { %struct._zend_refcounted_h, i64, i64, [1 x i8] }

; Function Attrs: nounwind uwtable
define internal i32 @fetch_obj_prop(ptr noundef %0, ptr noundef %1, ptr noundef %2) #0 {
  %4 = alloca i1, align 1
  %5 = alloca ptr, align 8
  %6 = alloca i64, align 8
  %7 = alloca ptr, align 8
  %8 = alloca ptr, align 8
  %9 = alloca ptr, align 8
  %10 = alloca ptr, align 8
  %11 = alloca ptr, align 8
  %12 = alloca i64, align 8
  %13 = alloca ptr, align 8
  %14 = alloca i32, align 4
  %15 = alloca ptr, align 8
  %16 = alloca ptr, align 8
  %17 = alloca ptr, align 8
  store ptr %0, ptr %15, align 8
  store ptr %1, ptr %16, align 8
  store ptr %2, ptr %17, align 8
  %18 = load ptr, ptr %17, align 8
  store ptr %18, ptr %13, align 8
  %19 = load ptr, ptr %13, align 8
  %20 = getelementptr inbounds %struct._zval_struct, ptr %19, i32 0, i32 1
  %21 = load i8, ptr %20, align 8
  %22 = zext i8 %21 to i32
  switch i32 %22, label %84 [
    i32 6, label %23
  ]

23:                                               ; preds = %3
  %24 = load ptr, ptr %16, align 8
  %25 = getelementptr inbounds %struct._zval_struct, ptr %24, i32 0, i32 0
  %26 = load ptr, ptr %25, align 8
  %27 = load ptr, ptr %17, align 8
  %28 = getelementptr inbounds %struct._zval_struct, ptr %27, i32 0, i32 0
  %29 = load ptr, ptr %28, align 8
  store ptr %26, ptr %10, align 8
  store ptr %29, ptr %11, align 8
  %30 = load ptr, ptr %11, align 8
  %31 = getelementptr inbounds %struct._zend_string, ptr %30, i32 0, i32 3
  %32 = load ptr, ptr %11, align 8
  %33 = getelementptr inbounds %struct._zend_string, ptr %32, i32 0, i32 2
  %34 = load i64, ptr %33, align 8
  store ptr %31, ptr %5, align 8
  store i64 %34, ptr %6, align 8
  store ptr %12, ptr %7, align 8
  %35 = load ptr, ptr %5, align 8
  store ptr %35, ptr %8, align 8
  %36 = load ptr, ptr %8, align 8
  %37 = load i8, ptr %36, align 1
  %38 = sext i8 %37 to i32
  %39 = icmp sgt i32 %38, 57
  br i1 %39, label %40, label %41

40:                                               ; preds = %23
  store i1 false, ptr %4, align 1
  br label %71

41:                                               ; preds = %23
  %42 = load ptr, ptr %8, align 8
  %43 = load i8, ptr %42, align 1
  %44 = sext i8 %43 to i32
  %45 = icmp slt i32 %44, 48
  br i1 %45, label %46, label %66

46:                                               ; preds = %41
  %47 = load ptr, ptr %8, align 8
  %48 = load i8, ptr %47, align 1
  %49 = sext i8 %48 to i32
  %50 = icmp ne i32 %49, 45
  br i1 %50, label %51, label %52

51:                                               ; preds = %46
  store i1 false, ptr %4, align 1
  br label %71

52:                                               ; preds = %46
  %53 = load ptr, ptr %8, align 8
  %54 = getelementptr inbounds i8, ptr %53, i32 1
  store ptr %54, ptr %8, align 8
  %55 = load ptr, ptr %8, align 8
  %56 = load i8, ptr %55, align 1
  %57 = sext i8 %56 to i32
  %58 = icmp sgt i32 %57, 57
  br i1 %58, label %64, label %59

59:                                               ; preds = %52
  %60 = load ptr, ptr %8, align 8
  %61 = load i8, ptr %60, align 1
  %62 = sext i8 %61 to i32
  %63 = icmp slt i32 %62, 48
  br i1 %63, label %64, label %65

64:                                               ; preds = %59, %52
  store i1 false, ptr %4, align 1
  br label %71

65:                                               ; preds = %59
  br label %66

66:                                               ; preds = %65, %41
  %67 = load ptr, ptr %5, align 8
  %68 = load i64, ptr %6, align 8
  %69 = load ptr, ptr %7, align 8
  %70 = call zeroext i1 @_zend_handle_numeric_str_ex(ptr noundef %67, i64 noundef %68, ptr noundef %69) #10
  store i1 %70, ptr %4, align 1
  br label %71

71:                                               ; preds = %66, %64, %51, %40
  %72 = load i1, ptr %4, align 1
  br i1 %72, label %73, label %77

73:                                               ; preds = %71
  %74 = load ptr, ptr %10, align 8
  %75 = load i64, ptr %12, align 8
  %76 = call ptr @zend_hash_index_find(ptr noundef %74, i64 noundef %75) #10
  store ptr %76, ptr %9, align 8
  br label %81

77:                                               ; preds = %71
  %78 = load ptr, ptr %10, align 8
  %79 = load ptr, ptr %11, align 8
  %80 = call ptr @zend_hash_find(ptr noundef %78, ptr noundef %79) #10
  store ptr %80, ptr %9, align 8
  br label %81

81:                                               ; preds = %77, %73
  %82 = load ptr, ptr %9, align 8
  %83 = load ptr, ptr %15, align 8
  store ptr %82, ptr %83, align 8
  store i32 0, ptr %14, align 4
  br label %85

84:                                               ; preds = %3
  store i32 -1, ptr %14, align 4
  br label %85

85:                                               ; preds = %84, %81
  %86 = load i32, ptr %14, align 4
  ret i32 %86
}

; Function Attrs: nounwind uwtable
define internal i32 @ct_eval_fetch_obj(ptr noundef %0, ptr noundef %1, ptr noundef %2) #0 {
  %4 = alloca ptr, align 8
  %5 = alloca ptr, align 8
  %6 = alloca ptr, align 8
  %7 = alloca i32, align 4
  %8 = alloca ptr, align 8
  %9 = alloca ptr, align 8
  %10 = alloca ptr, align 8
  %11 = alloca ptr, align 8
  %12 = alloca ptr, align 8
  %13 = alloca ptr, align 8
  %14 = alloca ptr, align 8
  %15 = alloca i32, align 4
  store ptr %0, ptr %8, align 8
  store ptr %1, ptr %9, align 8
  store ptr %2, ptr %10, align 8
  %16 = load ptr, ptr %9, align 8
  store ptr %16, ptr %5, align 8
  %17 = load ptr, ptr %5, align 8
  %18 = getelementptr inbounds %struct._zval_struct, ptr %17, i32 0, i32 1
  %19 = load i8, ptr %18, align 8
  %20 = zext i8 %19 to i32
  %21 = icmp eq i32 %20, 252
  br i1 %21, label %22, label %67

22:                                               ; preds = %3
  %23 = load ptr, ptr %9, align 8
  %24 = load ptr, ptr %10, align 8
  %25 = call i32 @fetch_obj_prop(ptr noundef %11, ptr noundef %23, ptr noundef %24)
  %26 = icmp eq i32 %25, 0
  br i1 %26, label %27, label %66

27:                                               ; preds = %22
  %28 = load ptr, ptr %11, align 8
  %29 = icmp ne ptr %28, null
  br i1 %29, label %30, label %66

30:                                               ; preds = %27
  %31 = load ptr, ptr %11, align 8
  store ptr %31, ptr %6, align 8
  %32 = load ptr, ptr %6, align 8
  %33 = getelementptr inbounds %struct._zval_struct, ptr %32, i32 0, i32 1
  %34 = load i8, ptr %33, align 8
  %35 = zext i8 %34 to i32
  %36 = icmp eq i32 %35, 254
  br i1 %36, label %66, label %37

37:                                               ; preds = %30
  br label %38

38:                                               ; preds = %37
  %39 = load ptr, ptr %8, align 8
  store ptr %39, ptr %12, align 8
  %40 = load ptr, ptr %11, align 8
  store ptr %40, ptr %13, align 8
  %41 = load ptr, ptr %13, align 8
  %42 = getelementptr inbounds %struct._zval_struct, ptr %41, i32 0, i32 0
  %43 = load ptr, ptr %42, align 8
  store ptr %43, ptr %14, align 8
  %44 = load ptr, ptr %13, align 8
  %45 = getelementptr inbounds %struct._zval_struct, ptr %44, i32 0, i32 1
  %46 = load i32, ptr %45, align 8
  store i32 %46, ptr %15, align 4
  br label %47

47:                                               ; preds = %38
  %48 = load ptr, ptr %14, align 8
  %49 = load ptr, ptr %12, align 8
  %50 = getelementptr inbounds %struct._zval_struct, ptr %49, i32 0, i32 0
  store ptr %48, ptr %50, align 8
  %51 = load i32, ptr %15, align 4
  %52 = load ptr, ptr %12, align 8
  %53 = getelementptr inbounds %struct._zval_struct, ptr %52, i32 0, i32 1
  store i32 %51, ptr %53, align 8
  br label %54

54:                                               ; preds = %47
  %55 = load i32, ptr %15, align 4
  %56 = and i32 %55, 65280
  %57 = icmp ne i32 %56, 0
  br i1 %57, label %58, label %64

58:                                               ; preds = %54
  %59 = load ptr, ptr %14, align 8
  %60 = getelementptr inbounds %struct._zend_refcounted, ptr %59, i32 0, i32 0
  store ptr %60, ptr %4, align 8
  %61 = load ptr, ptr %4, align 8
  %62 = load i32, ptr %61, align 4
  %63 = add i32 %62, 1
  store i32 %63, ptr %61, align 4
  br label %64

64:                                               ; preds = %58, %54
  br label %65

65:                                               ; preds = %64
  store i32 0, ptr %7, align 4
  br label %68

66:                                               ; preds = %30, %27, %22
  br label %67

67:                                               ; preds = %66, %3
  store i32 -1, ptr %7, align 4
  br label %68

68:                                               ; preds = %67, %65
  %69 = load i32, ptr %7, align 4
  ret i32 %69
}