; Function Attrs: nounwind uwtable
define internal fastcc noundef i32 @ct_eval_fetch_obj(ptr nocapture noundef writeonly %0, ptr nocapture noundef readonly %1, ptr nocapture noundef readonly %2) unnamed_addr #0 {
  %4 = alloca i64, align 8
  %5 = getelementptr inbounds i8, ptr %1, i64 8
  %6 = load i8, ptr %5, align 8
  %7 = icmp eq i8 %6, -4
  br i1 %7, label %8, label %44

8:                                                ; preds = %3
  call void @llvm.lifetime.start.p0(i64 8, ptr nonnull %4)
  %9 = getelementptr inbounds i8, ptr %2, i64 8
  %10 = load i8, ptr %9, align 8
  %cond.i = icmp eq i8 %10, 6
  br i1 %cond.i, label %11, label %fetch_obj_prop.exit.thread

fetch_obj_prop.exit.thread:                       ; preds = %8
  call void @llvm.lifetime.end.p0(i64 8, ptr nonnull %4)
  br label %44

11:                                               ; preds = %8
  %12 = load ptr, ptr %1, align 8
  %13 = load ptr, ptr %2, align 8
  %14 = getelementptr inbounds i8, ptr %13, i64 24
  %15 = getelementptr inbounds i8, ptr %13, i64 16
  %16 = load i64, ptr %15, align 8
  %17 = load i8, ptr %14, align 1
  %18 = icmp sgt i8 %17, 57
  br i1 %18, label %.critedge.i, label %19

19:                                               ; preds = %11
  %20 = icmp slt i8 %17, 48
  br i1 %20, label %21, label %26

21:                                               ; preds = %19
  %.not.i = icmp eq i8 %17, 45
  br i1 %.not.i, label %22, label %.critedge.i

22:                                               ; preds = %21
  %23 = getelementptr inbounds i8, ptr %13, i64 25
  %24 = load i8, ptr %23, align 1
  %25 = add i8 %24, -58
  %or.cond.i = icmp ult i8 %25, -10
  br i1 %or.cond.i, label %.critedge.i, label %26

26:                                               ; preds = %22, %19
  %27 = call zeroext i1 @_zend_handle_numeric_str_ex(ptr noundef nonnull %14, i64 noundef %16, ptr noundef nonnull %4) #13
  br i1 %27, label %28, label %.critedge.i

28:                                               ; preds = %26
  %29 = load i64, ptr %4, align 8
  %30 = call ptr @zend_hash_index_find(ptr noundef %12, i64 noundef %29) #13
  br label %fetch_obj_prop.exit

.critedge.i:                                      ; preds = %26, %22, %21, %11
  %31 = call ptr @zend_hash_find(ptr noundef %12, ptr noundef nonnull %13) #13
  br label %fetch_obj_prop.exit

fetch_obj_prop.exit:                              ; preds = %28, %.critedge.i
  %.017 = phi ptr [ %30, %28 ], [ %31, %.critedge.i ]
  call void @llvm.lifetime.end.p0(i64 8, ptr nonnull %4)
  %.not21 = icmp eq ptr %.017, null
  br i1 %.not21, label %44, label %32

32:                                               ; preds = %fetch_obj_prop.exit
  %33 = getelementptr inbounds i8, ptr %.017, i64 8
  %34 = load i8, ptr %33, align 8
  %35 = icmp eq i8 %34, -2
  br i1 %35, label %44, label %36

36:                                               ; preds = %32
  %37 = load ptr, ptr %.017, align 8
  %38 = load i32, ptr %33, align 8
  store ptr %37, ptr %0, align 8
  %39 = getelementptr inbounds i8, ptr %0, i64 8
  store i32 %38, ptr %39, align 8
  %40 = and i32 %38, 65280
  %.not = icmp eq i32 %40, 0
  br i1 %.not, label %44, label %41

41:                                               ; preds = %36
  %42 = load i32, ptr %37, align 4
  %43 = add i32 %42, 1
  store i32 %43, ptr %37, align 4
  br label %44

44:                                               ; preds = %fetch_obj_prop.exit.thread, %3, %32, %fetch_obj_prop.exit, %41, %36
  %.0 = phi i32 [ 0, %36 ], [ 0, %41 ], [ -1, %fetch_obj_prop.exit ], [ -1, %32 ], [ -1, %3 ], [ -1, %fetch_obj_prop.exit.thread ]
  ret i32 %.0
}